; Function Attrs: mustprogress nofree norecurse nosync nounwind willreturn memory(argmem: read) uwtable
define dso_local range(i64 0, 2) i64 @int42le(ptr noundef readonly captures(none) %0) local_unnamed_addr #7 {
  %2 = getelementptr inbounds nuw i8, ptr %0, i64 32
  %3 = load i64, ptr %2, align 8
  %4 = trunc i64 %3 to i32
  %5 = getelementptr inbounds nuw i8, ptr %0, i64 48
  %6 = load i64, ptr %5, align 8
  %7 = trunc i64 %6 to i32
  %sext = shl i32 %7, 16
  %8 = ashr exact i32 %sext, 16
  %9 = icmp sge i32 %8, %4
  %10 = zext i1 %9 to i64
  ret i64 %10
}